; Function Attrs: null_pointer_is_valid sspstrong uwtable
define internal i32 @netlogon_dissect_netrlogonsamlogonflags_rqst(ptr noundef %0, i32 noundef %1, ptr noundef %2, ptr noundef %3, ptr noundef %4, ptr noundef %5) #0 {
  %7 = alloca i32, align 4
  %8 = load i32, ptr @hf_netlogon_logonsrv_handle, align 4
  %9 = tail call i32 @dissect_ndr_str_pointer_item(ptr noundef %0, i32 noundef %1, ptr noundef %2, ptr noundef %3, ptr noundef %4, ptr noundef %5, i32 noundef 2, ptr noundef nonnull @.str.1135, i32 noundef %8, i32 noundef 0)
  %10 = load i32, ptr @hf_netlogon_computer_name, align 4
  %11 = tail call i32 @dissect_ndr_str_pointer_item(ptr noundef %0, i32 noundef %9, ptr noundef %2, ptr noundef %3, ptr noundef %4, ptr noundef %5, i32 noundef 2, ptr noundef nonnull @.str.252, i32 noundef %10, i32 noundef 0)
  %12 = tail call i32 @dissect_ndr_pointer(ptr noundef %0, i32 noundef %11, ptr noundef %2, ptr noundef %3, ptr noundef %4, ptr noundef %5, ptr noundef nonnull @netlogon_dissect_AUTHENTICATOR, i32 noundef 2, ptr noundef nonnull @.str.1142, i32 noundef -1)
  %13 = tail call i32 @dissect_ndr_pointer(ptr noundef %0, i32 noundef %12, ptr noundef %2, ptr noundef %3, ptr noundef %4, ptr noundef %5, ptr noundef nonnull @netlogon_dissect_AUTHENTICATOR, i32 noundef 2, ptr noundef nonnull @.str.1143, i32 noundef -1)
  %14 = load i32, ptr @hf_netlogon_level16, align 4
  %15 = tail call i32 @dissect_ndr_uint16(ptr noundef %0, i32 noundef %13, ptr noundef %2, ptr noundef %3, ptr noundef %4, ptr noundef %5, i32 noundef %14, ptr noundef null)
  %16 = tail call i32 @dissect_ndr_pointer(ptr noundef %0, i32 noundef %15, ptr noundef %2, ptr noundef %3, ptr noundef %4, ptr noundef %5, ptr noundef nonnull @netlogon_dissect_LEVEL, i32 noundef 1, ptr noundef nonnull @.str.1144, i32 noundef -1)
  %17 = load i32, ptr @hf_netlogon_validation_level, align 4
  %18 = tail call i32 @dissect_ndr_uint16(ptr noundef %0, i32 noundef %16, ptr noundef %2, ptr noundef %3, ptr noundef %4, ptr noundef %5, i32 noundef %17, ptr noundef null)
  call void @llvm.lifetime.start.p0(i64 4, ptr nonnull %7) #15
  %19 = getelementptr inbounds nuw i8, ptr %4, i64 25
  %20 = load i8, ptr %19, align 1, !range !6, !noundef !7
  %21 = trunc nuw i8 %20 to i1
  br i1 %21, label %netlogon_dissect_EXTRA_FLAGS.exit, label %22

22:                                               ; preds = %6
  %23 = call i32 @dissect_ndr_uint32(ptr noundef %0, i32 noundef %18, ptr noundef %2, ptr noundef null, ptr noundef %4, ptr noundef %5, i32 noundef -1, ptr noundef nonnull %7)
  %24 = add i32 %23, -4
  %25 = load i32, ptr @hf_netlogon_extraflags, align 4
  %26 = load i32, ptr @ett_trust_flags, align 4
  %27 = load i32, ptr %7, align 4
  %28 = zext i32 %27 to i64
  %29 = call ptr @proto_tree_add_bitmask_value_with_flags(ptr noundef %3, ptr noundef %0, i32 noundef %24, i32 noundef %25, i32 noundef %26, ptr noundef nonnull @netlogon_dissect_EXTRA_FLAGS.extraflags, i64 noundef %28, i32 noundef 1)
  br label %netlogon_dissect_EXTRA_FLAGS.exit

netlogon_dissect_EXTRA_FLAGS.exit:                ; preds = %6, %22
  %.0.i = phi i32 [ %23, %22 ], [ %18, %6 ]
  call void @llvm.lifetime.end.p0(i64 4, ptr nonnull %7) #15
  ret i32 %.0.i
}